0001   0000 21 B0 00    	LXI H,00B0H
0002   0003 01 C0 00    	LXI B,00C0H
0003   0006 11 D0 00    	LXI D,00D0H
0004   0009 3E 00       	MVI A,00H
0005   000B 02          	STAX B
0006   000C 12          	STAX D
0007   000D 7E          	MOV A,M
0008   000E 32 A0 00    	STA 00A0H
0009   0011 23          	INX H
0010   0012 03          	INX B
0011   0013 13          	INX D
0012   0014 31 FF 00    	LXI SP,00FFH
0013   0017 CD 26 00    LOOP:	CALL PRIME
0014   001A 23          	INX H
0015   001B 3A A0 00    	LDA 00A0H
0016   001E 3D          	DCR A
0017   001F 32 A0 00    	STA 00A0H
0018   0022 C2 17 00    	JNZ LOOP
0019   0025 76          LBL:	HLT
0020   0026 F5          PRIME:	PUSH PSW
0021   0027 C5          	PUSH B
0022   0028 D5          	PUSH D
0023   0029 46          	MOV B,M
0024   002A 16 00       	MVI D,00H
0025   002C 7E          LOOP1:	MOV A,M
0026   002D CD 5E 00    	CALL DIV
0027   0030 79          	MOV A,C
0028   0031 A7          	ANA A
0029   0032 CA 36 00    	JZ LBL3
0030   0035 14          	INR D
0031   0036 05          LBL3:	DCR B
0032   0037 C2 2C 00    	JNZ LOOP1
0033   003A 3E 02       	MVI A,02H
0034   003C BA          	CMP D
0035   003D D1          	POP D
0036   003E C1          	POP B
0037   003F DA 52 00    	JC LBL4
0038   0042 C2 52 00    	JNZ LBL4
0039   0045 7E          	MOV A,M
0040   0046 02          	STAX B
0041   0047 03          	INX B
0042   0048 3A C0 00    	LDA 00C0H
0043   004B 3C          	INR A
0044   004C 32 C0 00    	STA 00C0H
0045   004F C3 5C 00    	JMP LBL5
0046   0052 7E          LBL4:	MOV A,M
0047   0053 12          	STAX D
0048   0054 13          	INX D
0049   0055 3A D0 00    	LDA 00D0H
0050   0058 3C          	INR A
0051   0059 32 D0 00    	STA 00D0H
0052   005C F1          LBL5:	POP PSW
0053   005D C9          	RET
0054   005E F5          DIV:	PUSH PSW
0055   005F B8          LOOP2:	CMP B
0056   0060 DA 67 00    	JC LBL1
0057   0063 90          	SUB B
0058   0064 D2 5F 00    	JNC LOOP2
0059   0067 0E 00       LBL1:	MVI C,00H
0060   0069 A7          	ANA A
0061   006A C2 6F 00    	JNZ LBL2
0062   006D 0E 01       	MVI C,01H
0063   006F F1          LBL2:	POP PSW
0064   0070 C9          	RET
Number of errors = 0
