0001   0000 2A 90 00    	LHLD 0090H
0002   0003 EB          	XCHG
0003   0004 2A 92 00    	LHLD 0092H
0004   0007 44          	MOV B,H
0005   0008 4D          	MOV C,L
0006   0009 AF          	XRA A
0007   000A 32 A2 00    	STA 00A2H
0008   000D 32 A3 00    	STA 00A3H
0009   0010 1B          	DCX D
0010   0011 7B          	MOV A,E
0011   0012 B2          	ORA D
0012   0013 CA 32 00    	JZ LBL
0013   0016 09          LOOP:	DAD B
0014   0017 D2 2C 00    	JNC LBL1
0015   001A 3A A2 00    	LDA 00A2H
0016   001D C6 01       	ADI 01H
0017   001F 32 A2 00    	STA 00A2H
0018   0022 D2 2C 00    	JNC LBL1
0019   0025 3A A3 00    	LDA 00A3H
0020   0028 3C          	INR A
0021   0029 32 A3 00    	STA 00A3H
0022   002C 1B          LBL1:	DCX D
0023   002D 7B          	MOV A,E
0024   002E B2          	ORA D
0025   002F C2 16 00    	JNZ LOOP
0026   0032 22 A0 00    LBL:	SHLD 00A0H
0027   0035 2A 90 00    	LHLD 0090H
0028   0038 CD 50 00    	CALL DIV
0029   003B 32 B0 00    	STA 00B0H
0030   003E 78          	MOV A,B
0031   003F 32 B1 00    	STA 00B1H
0032   0042 2A 92 00    	LHLD 0092H
0033   0045 CD 50 00    	CALL DIV
0034   0048 32 B2 00    	STA 00B2H
0035   004B 78          	MOV A,B
0036   004C 32 B3 00    	STA 00B3H
0037   004F 76          	HLT
0038   0050 06 00       DIV:	MVI B,00H
0039   0052 16 10       	MVI D,10H
0040   0054 0E 00       LOOP1:	MVI C,00H
0041   0056 7C          	MOV A,H
0042   0057 FE 00       	CPI 00H
0043   0059 CA 6A 00    	JZ LBL2
0044   005C 7D          	MOV A,L
0045   005D 04          	INR B
0046   005E 92          	SUB D
0047   005F 6F          	MOV L,A
0048   0060 D2 64 00    	JNC LBL3
0049   0063 0C          	INR C
0050   0064 7C          LBL3:	MOV A,H
0051   0065 91          	SUB C
0052   0066 67          	MOV H,A
0053   0067 C3 54 00    	JMP LOOP1
0054   006A 7D          LBL2:	MOV A,L
0055   006B BA          LOOP2:	CMP D
0056   006C DA 74 00    	JC LBL4
0057   006F 04          	INR B
0058   0070 92          	SUB D
0059   0071 C2 6B 00    	JNZ LOOP2
0060   0074 C9          LBL4:	RET
Number of errors = 0
