0001   0000 21 00 01    	LXI H,0100H
0002   0003 06 0A       	MVI B,0AH
0003   0005 4E          	MOV C,M
0004   0006 05          	DCR B
0005   0007 16 00       	MVI D,00
0006   0009 7E          	MOV A,M
0007   000A 32 20 01    	STA 0120H
0008   000D 32 21 01    	STA 0121H
0009   0010 23          LOOP1:	INX H
0010   0011 79          	MOV A,C
0011   0012 86          	ADD M
0012   0013 4F          	MOV C,A
0013   0014 D2 18 00    	JNC LBL
0014   0017 14          	INR D
0015   0018 3A 20 01    LBL:	LDA 0120H
0016   001B BE          	CMP M
0017   001C D2 23 00    	JNC LBL1
0018   001F 7E          	MOV A,M
0019   0020 32 20 01    	STA 0120H
0020   0023 3A 21 01    LBL1:	LDA 0121H
0021   0026 BE          	CMP M
0022   0027 DA 2E 00    	JC LBL2
0023   002A 7E          	MOV A,M
0024   002B 32 21 01    	STA 0121H
0025   002E 05          LBL2:	DCR B
0026   002F C2 10 00    	JNZ LOOP1
0027   0032 23          	INX H
0028   0033 3A 20 01    	LDA 0120H
0029   0036 77          	MOV M,A
0030   0037 23          	INX H
0031   0038 3A 21 01    	LDA 0121H
0032   003B 77          	MOV M,A
0033   003C 23          	INX H
0034   003D 7A          	MOV A,D
0035   003E 77          	MOV M,A
0036   003F 32 30 01    	STA 0130H
0037   0042 23          	INX H
0038   0043 79          	MOV A,C
0039   0044 77          	MOV M,A
0040   0045 32 31 01    	STA 0131H
0041   0048 06 0A       	MVI B,0AH
0042   004A 16 00       	MVI D,00H
0043   004C 5A          	MOV E,D
0044   004D 0E 00       LOOP2:	MVI C,00H
0045   004F 3A 30 01    	LDA 0130H
0046   0052 FE 00       	CPI 00H
0047   0054 CA 74 00    	JZ LBL4
0048   0057 3A 31 01    	LDA 0131H
0049   005A 90          	SUB B
0050   005B 32 31 01    	STA 0131H
0051   005E D2 62 00    	JNC LBL3
0052   0061 0C          	INR C
0053   0062 3A 30 01    LBL3:	LDA 0130H
0054   0065 91          	SUB C
0055   0066 32 30 01    	STA 0130H
0056   0069 7A          	MOV A,D
0057   006A C6 01       	ADI 01H
0058   006C 57          	MOV D,A
0059   006D D2 71 00    	JNC LBL5
0060   0070 1C          	INR E
0061   0071 C3 4D 00    LBL5:	JMP LOOP2
0062   0074 3A 31 01    LBL4:	LDA 0131H
0063   0077 B8          	CMP B
0064   0078 DA 91 00    	JC LBL7
0065   007B 90          	SUB B
0066   007C 32 31 01    	STA 0131H
0067   007F 7A          	MOV A,D
0068   0080 C6 01       	ADI 01H
0069   0082 57          	MOV D,A
0070   0083 D2 87 00    	JNC LBL6
0071   0086 1C          	INR E
0072   0087 3A 31 01    LBL6:	LDA 0131H
0073   008A B7          	ORA A
0074   008B CA 91 00    	JZ LBL7
0075   008E C3 74 00    	JMP LBL4
0076   0091 47          LBL7:	MOV B,A
0077   0092 23          	INX H
0078   0093 73          	MOV M,E
0079   0094 23          	INX H
0080   0095 72          	MOV M,D
0081   0096 23          	INX H
0082   0097 70          	MOV M,B
0083   0098 76          	HLT
Number of errors = 0
